target datalayout = "e-m:e-p270:32:32-p271:32:32-p272:64:64-i64:64-i128:128-f80:128-n8:16:32:64-S128"
target triple = "x86_64-pc-linux-gnu"

%struct.pmix_object_t = type { %union.pthread_mutex_t, ptr, i32, %struct.pmix_tma }
%union.pthread_mutex_t = type { %struct.__pthread_mutex_s }
%struct.__pthread_mutex_s = type { i32, i32, i32, i32, i32, i16, i16, %struct.__pthread_internal_list }
%struct.__pthread_internal_list = type { ptr, ptr }
%struct.pmix_tma = type { ptr, ptr, ptr, ptr, ptr, ptr, ptr, ptr }
%struct.pmix_proc = type { [256 x i8], i32 }
%struct.pmix_list_t = type { %struct.pmix_object_t, %struct.pmix_list_item_t, i64 }
%struct.pmix_list_item_t = type { %struct.pmix_object_t, ptr, ptr, i32 }
%struct.prte_rml_base_t = type { i32, i32, i32, i32, %struct.pmix_list_t, %struct.pmix_list_t, i32, %struct.pmix_list_t, i32, i8 }
%struct.pmix_output_desc_t = type { i8, i8, i32, i8, i32, ptr, ptr, i32, ptr, i32, i8, i8, i8, i8, ptr, i32, i32 }

@prte_rml_base = external global %struct.prte_rml_base_t, align 8
@pmix_output_info = external global [0 x %struct.pmix_output_desc_t], align 8
@.str.47 = private unnamed_addr constant [25 x i8] c"prted/pmix/pmix_server.c\00", align 1
@.str.244 = private unnamed_addr constant [37 x i8] c"PMIX ERROR: %s in file %s at line %d\00", align 1
@.str.258 = private unnamed_addr constant [26 x i8] c"RML-SEND(%s:%d): %s:%s:%d\00", align 1
@__func__.send_error = private unnamed_addr constant [11 x i8] c"send_error\00", align 1
@.str.259 = private unnamed_addr constant [37 x i8] c"PRTE ERROR: %s in file %s at line %d\00", align 1

; Function Attrs: nounwind uwtable
define internal void @send_error(i32 noundef %0, ptr noundef %1, ptr noundef %2, i32 noundef %3) #0 {
  %5 = alloca i32, align 4
  %6 = alloca ptr, align 8
  %7 = alloca ptr, align 8
  %8 = alloca i32, align 4
  %9 = alloca ptr, align 8
  %10 = alloca i32, align 4
  %11 = alloca i32, align 4
  %12 = alloca i32, align 4
  store i32 %0, ptr %5, align 4, !tbaa !29
  store ptr %1, ptr %6, align 8, !tbaa !33
  store ptr %2, ptr %7, align 8, !tbaa !33
  store i32 %3, ptr %8, align 4, !tbaa !29
  call void @llvm.lifetime.start.p0(i64 8, ptr %9) #13
  call void @llvm.lifetime.start.p0(i64 4, ptr %10) #13
  call void @llvm.lifetime.start.p0(i64 4, ptr %11) #13
  %13 = load i32, ptr %5, align 4, !tbaa !29
  %14 = call i32 @prte_pmix_convert_rc(i32 noundef %13)
  store i32 %14, ptr %11, align 4, !tbaa !29
  %15 = call ptr @PMIx_Data_buffer_create()
  store ptr %15, ptr %9, align 8, !tbaa !130
  %16 = load ptr, ptr %9, align 8, !tbaa !130
  %17 = call i32 @PMIx_Data_pack(ptr noundef null, ptr noundef %16, ptr noundef %11, i32 noundef 1, i16 noundef zeroext 20)
  store i32 %17, ptr %10, align 4, !tbaa !29
  %18 = icmp ne i32 0, %17
  br i1 %18, label %19, label %33

19:                                               ; preds = %4
  br label %20

20:                                               ; preds = %19
  %21 = load i32, ptr %10, align 4, !tbaa !29
  %22 = icmp ne i32 -2, %21
  br i1 %22, label %23, label %26

23:                                               ; preds = %20
  %24 = load i32, ptr %10, align 4, !tbaa !29
  %25 = call ptr @PMIx_Error_string(i32 noundef %24)
  call void (i32, ptr, ...) @pmix_output(i32 noundef 0, ptr noundef @.str.244, ptr noundef %25, ptr noundef @.str.47, i32 noundef 1006)
  br label %26

26:                                               ; preds = %23, %20
  br label %27

27:                                               ; preds = %26
  br label %28

28:                                               ; preds = %27
  br label %29

29:                                               ; preds = %28
  %30 = load ptr, ptr %9, align 8, !tbaa !130
  call void @PMIx_Data_buffer_release(ptr noundef %30)
  store ptr null, ptr %9, align 8, !tbaa !130
  br label %31

31:                                               ; preds = %29
  br label %32

32:                                               ; preds = %31
  store i32 1, ptr %12, align 4
  br label %115

33:                                               ; preds = %4
  %34 = load ptr, ptr %9, align 8, !tbaa !130
  %35 = load ptr, ptr %6, align 8, !tbaa !33
  %36 = call i32 @PMIx_Data_pack(ptr noundef null, ptr noundef %34, ptr noundef %35, i32 noundef 1, i16 noundef zeroext 22)
  store i32 %36, ptr %10, align 4, !tbaa !29
  %37 = icmp ne i32 0, %36
  br i1 %37, label %38, label %52

38:                                               ; preds = %33
  br label %39

39:                                               ; preds = %38
  %40 = load i32, ptr %10, align 4, !tbaa !29
  %41 = icmp ne i32 -2, %40
  br i1 %41, label %42, label %45

42:                                               ; preds = %39
  %43 = load i32, ptr %10, align 4, !tbaa !29
  %44 = call ptr @PMIx_Error_string(i32 noundef %43)
  call void (i32, ptr, ...) @pmix_output(i32 noundef 0, ptr noundef @.str.244, ptr noundef %44, ptr noundef @.str.47, i32 noundef 1012)
  br label %45

45:                                               ; preds = %42, %39
  br label %46

46:                                               ; preds = %45
  br label %47

47:                                               ; preds = %46
  br label %48

48:                                               ; preds = %47
  %49 = load ptr, ptr %9, align 8, !tbaa !130
  call void @PMIx_Data_buffer_release(ptr noundef %49)
  store ptr null, ptr %9, align 8, !tbaa !130
  br label %50

50:                                               ; preds = %48
  br label %51

51:                                               ; preds = %50
  store i32 1, ptr %12, align 4
  br label %115

52:                                               ; preds = %33
  %53 = load ptr, ptr %9, align 8, !tbaa !130
  %54 = call i32 @PMIx_Data_pack(ptr noundef null, ptr noundef %53, ptr noundef %8, i32 noundef 1, i16 noundef zeroext 6)
  store i32 %54, ptr %10, align 4, !tbaa !29
  %55 = icmp ne i32 0, %54
  br i1 %55, label %56, label %70

56:                                               ; preds = %52
  br label %57

57:                                               ; preds = %56
  %58 = load i32, ptr %10, align 4, !tbaa !29
  %59 = icmp ne i32 -2, %58
  br i1 %59, label %60, label %63

60:                                               ; preds = %57
  %61 = load i32, ptr %10, align 4, !tbaa !29
  %62 = call ptr @PMIx_Error_string(i32 noundef %61)
  call void (i32, ptr, ...) @pmix_output(i32 noundef 0, ptr noundef @.str.244, ptr noundef %62, ptr noundef @.str.47, i32 noundef 1019)
  br label %63

63:                                               ; preds = %60, %57
  br label %64

64:                                               ; preds = %63
  br label %65

65:                                               ; preds = %64
  br label %66

66:                                               ; preds = %65
  %67 = load ptr, ptr %9, align 8, !tbaa !130
  call void @PMIx_Data_buffer_release(ptr noundef %67)
  store ptr null, ptr %9, align 8, !tbaa !130
  br label %68

68:                                               ; preds = %66
  br label %69

69:                                               ; preds = %68
  store i32 1, ptr %12, align 4
  br label %115

70:                                               ; preds = %52
  br label %71

71:                                               ; preds = %70
  %72 = load i32, ptr @prte_rml_base, align 8, !tbaa !126
  %73 = icmp sge i32 %72, 0
  br i1 %73, label %74, label %90

74:                                               ; preds = %71
  %75 = load i32, ptr @prte_rml_base, align 8, !tbaa !126
  %76 = icmp slt i32 %75, 64
  br i1 %76, label %77, label %90

77:                                               ; preds = %74
  %78 = load i32, ptr @prte_rml_base, align 8, !tbaa !126
  %79 = sext i32 %78 to i64
  %80 = getelementptr inbounds [0 x %struct.pmix_output_desc_t], ptr @pmix_output_info, i64 0, i64 %79
  %81 = getelementptr inbounds nuw %struct.pmix_output_desc_t, ptr %80, i32 0, i32 2
  %82 = load i32, ptr %81, align 4, !tbaa !128
  %83 = icmp sge i32 %82, 2
  br i1 %83, label %84, label %90

84:                                               ; preds = %77
  %85 = load i32, ptr @prte_rml_base, align 8, !tbaa !126
  %86 = load ptr, ptr %7, align 8, !tbaa !33
  %87 = getelementptr inbounds nuw %struct.pmix_proc, ptr %86, i32 0, i32 1
  %88 = load i32, ptr %87, align 4, !tbaa !49
  %89 = call ptr @pmix_util_print_rank(i32 noundef %88)
  call void (i32, ptr, ...) @pmix_output(i32 noundef %85, ptr noundef @.str.258, ptr noundef %89, i32 noundef 51, ptr noundef @.str.47, ptr noundef @__func__.send_error, i32 noundef 1025)
  br label %90

90:                                               ; preds = %84, %77, %74, %71
  %91 = load ptr, ptr %7, align 8, !tbaa !33
  %92 = getelementptr inbounds nuw %struct.pmix_proc, ptr %91, i32 0, i32 1
  %93 = load i32, ptr %92, align 4, !tbaa !49
  %94 = load ptr, ptr %9, align 8, !tbaa !130
  %95 = call i32 @prte_rml_send_buffer_nb(i32 noundef %93, ptr noundef %94, i32 noundef 51)
  store i32 %95, ptr %10, align 4, !tbaa !29
  br label %96

96:                                               ; preds = %90
  br label %97

97:                                               ; preds = %96
  %98 = load i32, ptr %10, align 4, !tbaa !29
  %99 = icmp ne i32 0, %98
  br i1 %99, label %100, label %114

100:                                              ; preds = %97
  br label %101

101:                                              ; preds = %100
  %102 = load i32, ptr %10, align 4, !tbaa !29
  %103 = icmp ne i32 -43, %102
  br i1 %103, label %104, label %107

104:                                              ; preds = %101
  %105 = load i32, ptr %10, align 4, !tbaa !29
  %106 = call ptr @prte_strerror(i32 noundef %105)
  call void (i32, ptr, ...) @pmix_output(i32 noundef 0, ptr noundef @.str.259, ptr noundef %106, ptr noundef @.str.47, i32 noundef 1027)
  br label %107

107:                                              ; preds = %104, %101
  br label %108

108:                                              ; preds = %107
  br label %109

109:                                              ; preds = %108
  br label %110

110:                                              ; preds = %109
  %111 = load ptr, ptr %9, align 8, !tbaa !130
  call void @PMIx_Data_buffer_release(ptr noundef %111)
  store ptr null, ptr %9, align 8, !tbaa !130
  br label %112

112:                                              ; preds = %110
  br label %113

113:                                              ; preds = %112
  br label %114

114:                                              ; preds = %113, %97
  store i32 0, ptr %12, align 4
  br label %115

115:                                              ; preds = %114, %69, %51, %32
  call void @llvm.lifetime.end.p0(i64 4, ptr %11) #13
  call void @llvm.lifetime.end.p0(i64 4, ptr %10) #13
  call void @llvm.lifetime.end.p0(i64 8, ptr %9) #13
  %116 = load i32, ptr %12, align 4
  switch i32 %116, label %118 [
    i32 0, label %117
    i32 1, label %117
  ]

117:                                              ; preds = %115, %115
  ret void

118:                                              ; preds = %115
  unreachable
}