; Function Attrs: nounwind uwtable
define internal fastcc void @send_error(i32 noundef %0, ptr noundef %1, ptr noundef readonly captures(none) %2, i32 noundef %3) unnamed_addr #0 {
  %5 = alloca i32, align 4
  %6 = alloca i32, align 4
  store i32 %3, ptr %5, align 4, !tbaa !51
  call void @llvm.lifetime.start.p0(i64 4, ptr nonnull %6) #17
  %7 = tail call i32 @prte_pmix_convert_rc(i32 noundef %0) #17
  store i32 %7, ptr %6, align 4, !tbaa !51
  %8 = tail call ptr @PMIx_Data_buffer_create() #17
  %9 = call i32 @PMIx_Data_pack(ptr noundef null, ptr noundef %8, ptr noundef nonnull %6, i32 noundef 1, i16 noundef zeroext 20) #17
  switch i32 %9, label %10 [
    i32 0, label %12
    i32 -2, label %.sink.split
  ]

10:                                               ; preds = %4
  %11 = call ptr @PMIx_Error_string(i32 noundef %9) #17
  call void (i32, ptr, ...) @pmix_output(i32 noundef 0, ptr noundef nonnull @.str.244, ptr noundef %11, ptr noundef nonnull @.str.47, i32 noundef 1006) #17
  br label %.sink.split

12:                                               ; preds = %4
  %13 = call i32 @PMIx_Data_pack(ptr noundef null, ptr noundef %8, ptr noundef %1, i32 noundef 1, i16 noundef zeroext 22) #17
  switch i32 %13, label %14 [
    i32 0, label %16
    i32 -2, label %.sink.split
  ]

14:                                               ; preds = %12
  %15 = call ptr @PMIx_Error_string(i32 noundef %13) #17
  call void (i32, ptr, ...) @pmix_output(i32 noundef 0, ptr noundef nonnull @.str.244, ptr noundef %15, ptr noundef nonnull @.str.47, i32 noundef 1012) #17
  br label %.sink.split

16:                                               ; preds = %12
  %17 = call i32 @PMIx_Data_pack(ptr noundef null, ptr noundef %8, ptr noundef nonnull %5, i32 noundef 1, i16 noundef zeroext 6) #17
  switch i32 %17, label %18 [
    i32 0, label %20
    i32 -2, label %.sink.split
  ]

18:                                               ; preds = %16
  %19 = call ptr @PMIx_Error_string(i32 noundef %17) #17
  call void (i32, ptr, ...) @pmix_output(i32 noundef 0, ptr noundef nonnull @.str.244, ptr noundef %19, ptr noundef nonnull @.str.47, i32 noundef 1019) #17
  br label %.sink.split

20:                                               ; preds = %16
  %21 = load i32, ptr @prte_rml_base, align 8, !tbaa !104
  %or.cond = icmp ult i32 %21, 64
  br i1 %or.cond, label %22, label %31

22:                                               ; preds = %20
  %23 = zext nneg i32 %21 to i64
  %24 = getelementptr inbounds nuw [0 x %struct.pmix_output_desc_t], ptr @pmix_output_info, i64 0, i64 %23, i32 2
  %25 = load i32, ptr %24, align 4, !tbaa !106
  %26 = icmp sgt i32 %25, 1
  br i1 %26, label %27, label %31

27:                                               ; preds = %22
  %28 = getelementptr inbounds nuw i8, ptr %2, i64 256
  %29 = load i32, ptr %28, align 4, !tbaa !45
  %30 = call ptr @pmix_util_print_rank(i32 noundef %29) #17
  call void (i32, ptr, ...) @pmix_output(i32 noundef %21, ptr noundef nonnull @.str.258, ptr noundef %30, i32 noundef 51, ptr noundef nonnull @.str.47, ptr noundef nonnull @__func__.send_error, i32 noundef 1025) #17
  br label %31

31:                                               ; preds = %27, %22, %20
  %32 = getelementptr inbounds nuw i8, ptr %2, i64 256
  %33 = load i32, ptr %32, align 4, !tbaa !45
  %34 = call i32 @prte_rml_send_buffer_nb(i32 noundef %33, ptr noundef %8, i32 noundef 51) #17
  switch i32 %34, label %35 [
    i32 0, label %37
    i32 -43, label %.sink.split
  ]

35:                                               ; preds = %31
  %36 = call ptr @prte_strerror(i32 noundef %34) #17
  call void (i32, ptr, ...) @pmix_output(i32 noundef 0, ptr noundef nonnull @.str.259, ptr noundef %36, ptr noundef nonnull @.str.47, i32 noundef 1027) #17
  br label %.sink.split

.sink.split:                                      ; preds = %35, %31, %18, %16, %14, %12, %10, %4
  call void @PMIx_Data_buffer_release(ptr noundef %8) #17
  br label %37

37:                                               ; preds = %.sink.split, %31
  call void @llvm.lifetime.end.p0(i64 4, ptr nonnull %6) #17
  ret void
}